; ModuleID = '10/1471.c'
source_filename = "10/1471.c"
target datalayout = "e-m:e-p270:32:32-p271:32:32-p272:64:64-i64:64-f80:128-n8:16:32:64-S128"
target triple = "x86_64-pc-linux-gnu"

@.str = private unnamed_addr constant [3 x i8] c"%d\00", align 1

; Function Attrs: noinline nounwind uwtable
define dso_local void @main() #0 {
  %1 = alloca i32, align 4
  %2 = alloca i32, align 4
  %3 = alloca [25 x i32], align 16
  %4 = alloca i32, align 4
  %5 = call i32 (i8*, ...) @__isoc99_scanf(i8* getelementptr inbounds ([3 x i8], [3 x i8]* @.str, i64 0, i64 0), i32* %1)
  store i32 0, i32* %2, align 4
  br label %6

6:                                                ; preds = %15, %0
  %7 = load i32, i32* %2, align 4
  %8 = load i32, i32* %1, align 4
  %9 = icmp slt i32 %7, %8
  br i1 %9, label %10, label %18

10:                                               ; preds = %6
  %11 = load i32, i32* %2, align 4
  %12 = sext i32 %11 to i64
  %13 = getelementptr inbounds [25 x i32], [25 x i32]* %3, i64 0, i64 %12
  %14 = call i32 (i8*, ...) @__isoc99_scanf(i8* getelementptr inbounds ([3 x i8], [3 x i8]* @.str, i64 0, i64 0), i32* %13)
  br label %15

15:                                               ; preds = %10
  %16 = load i32, i32* %2, align 4
  %17 = add nsw i32 %16, 1
  store i32 %17, i32* %2, align 4
  br label %6

18:                                               ; preds = %6
  %19 = getelementptr inbounds [25 x i32], [25 x i32]* %3, i64 0, i64 0
  %20 = load i32, i32* %1, align 4
  %21 = call i32 @lanjie(i32* %19, i32 10000, i32 0, i32 %20)
  store i32 %21, i32* %4, align 4
  %22 = load i32, i32* %4, align 4
  %23 = call i32 (i8*, ...) @printf(i8* getelementptr inbounds ([3 x i8], [3 x i8]* @.str, i64 0, i64 0), i32 %22)
  ret void
}

declare dso_local i32 @__isoc99_scanf(i8*, ...) #1

; Function Attrs: noinline nounwind uwtable
define dso_local i32 @lanjie(i32* %0, i32 %1, i32 %2, i32 %3) #0 {
  %5 = alloca i32*, align 8
  %6 = alloca i32, align 4
  %7 = alloca i32, align 4
  %8 = alloca i32, align 4
  %9 = alloca i32, align 4
  %10 = alloca i32, align 4
  %11 = alloca i32, align 4
  store i32* %0, i32** %5, align 8
  store i32 %1, i32* %6, align 4
  store i32 %2, i32* %7, align 4
  store i32 %3, i32* %8, align 4
  %12 = load i32, i32* %7, align 4
  %13 = load i32, i32* %8, align 4
  %14 = sub nsw i32 %13, 1
  %15 = icmp ne i32 %12, %14
  br i1 %15, label %16, label %58

16:                                               ; preds = %4
  %17 = load i32, i32* %6, align 4
  %18 = load i32*, i32** %5, align 8
  %19 = load i32, i32* %7, align 4
  %20 = sext i32 %19 to i64
  %21 = getelementptr inbounds i32, i32* %18, i64 %20
  %22 = load i32, i32* %21, align 4
  %23 = icmp sge i32 %17, %22
  br i1 %23, label %24, label %50

24:                                               ; preds = %16
  %25 = load i32*, i32** %5, align 8
  %26 = load i32*, i32** %5, align 8
  %27 = load i32, i32* %7, align 4
  %28 = sext i32 %27 to i64
  %29 = getelementptr inbounds i32, i32* %26, i64 %28
  %30 = load i32, i32* %29, align 4
  %31 = load i32, i32* %7, align 4
  %32 = add nsw i32 %31, 1
  %33 = load i32, i32* %8, align 4
  %34 = call i32 @lanjie(i32* %25, i32 %30, i32 %32, i32 %33)
  %35 = add nsw i32 %34, 1
  store i32 %35, i32* %9, align 4
  %36 = load i32*, i32** %5, align 8
  %37 = load i32, i32* %6, align 4
  %38 = load i32, i32* %7, align 4
  %39 = add nsw i32 %38, 1
  %40 = load i32, i32* %8, align 4
  %41 = call i32 @lanjie(i32* %36, i32 %37, i32 %39, i32 %40)
  store i32 %41, i32* %10, align 4
  %42 = load i32, i32* %9, align 4
  %43 = load i32, i32* %10, align 4
  %44 = icmp sgt i32 %42, %43
  br i1 %44, label %45, label %47

45:                                               ; preds = %24
  %46 = load i32, i32* %9, align 4
  store i32 %46, i32* %11, align 4
  br label %49

47:                                               ; preds = %24
  %48 = load i32, i32* %10, align 4
  store i32 %48, i32* %11, align 4
  br label %49

49:                                               ; preds = %47, %45
  br label %57

50:                                               ; preds = %16
  %51 = load i32*, i32** %5, align 8
  %52 = load i32, i32* %6, align 4
  %53 = load i32, i32* %7, align 4
  %54 = add nsw i32 %53, 1
  %55 = load i32, i32* %8, align 4
  %56 = call i32 @lanjie(i32* %51, i32 %52, i32 %54, i32 %55)
  store i32 %56, i32* %11, align 4
  br label %57

57:                                               ; preds = %50, %49
  br label %69

58:                                               ; preds = %4
  %59 = load i32, i32* %6, align 4
  %60 = load i32*, i32** %5, align 8
  %61 = load i32, i32* %7, align 4
  %62 = sext i32 %61 to i64
  %63 = getelementptr inbounds i32, i32* %60, i64 %62
  %64 = load i32, i32* %63, align 4
  %65 = icmp sge i32 %59, %64
  br i1 %65, label %66, label %67

66:                                               ; preds = %58
  store i32 1, i32* %11, align 4
  br label %68

67:                                               ; preds = %58
  store i32 0, i32* %11, align 4
  br label %68

68:                                               ; preds = %67, %66
  br label %69

69:                                               ; preds = %68, %57
  %70 = load i32, i32* %11, align 4
  ret i32 %70
}

declare dso_local i32 @printf(i8*, ...) #1


!llvm.module.flags = !{!0}
!llvm.ident = !{!1}

!0 = !{i32 1, !"wchar_size", i32 4}
!1 = !{!"clang version 10.0.0-4ubuntu1 "}
