; ModuleID = 'source-C-CXX/9/1471.c'
source_filename = "source-C-CXX/9/1471.c"
target datalayout = "e-m:e-p270:32:32-p271:32:32-p272:64:64-i64:64-f80:128-n8:16:32:64-S128"
target triple = "x86_64-pc-linux-gnu"

@.str = private unnamed_addr constant [3 x i8] c"%d\00", align 1

; Function Attrs: nofree nounwind sspstrong uwtable
define dso_local void @main() local_unnamed_addr #0 {
  %1 = alloca i32, align 4
  %2 = alloca [25 x i32], align 16
  %3 = bitcast i32* %1 to i8*
  call void @llvm.lifetime.start.p0i8(i64 4, i8* nonnull %3) #4
  %4 = bitcast [25 x i32]* %2 to i8*
  call void @llvm.lifetime.start.p0i8(i64 100, i8* nonnull %4) #4
  %5 = call i32 (i8*, ...) @__isoc99_scanf(i8* getelementptr inbounds ([3 x i8], [3 x i8]* @.str, i64 0, i64 0), i32* nonnull %1)
  %6 = load i32, i32* %1, align 4, !tbaa !5
  %7 = icmp sgt i32 %6, 0
  br i1 %7, label %8, label %16

8:                                                ; preds = %0, %8
  %9 = phi i64 [ %12, %8 ], [ 0, %0 ]
  %10 = getelementptr inbounds [25 x i32], [25 x i32]* %2, i64 0, i64 %9
  %11 = call i32 (i8*, ...) @__isoc99_scanf(i8* getelementptr inbounds ([3 x i8], [3 x i8]* @.str, i64 0, i64 0), i32* nonnull %10)
  %12 = add nuw nsw i64 %9, 1
  %13 = load i32, i32* %1, align 4, !tbaa !5
  %14 = sext i32 %13 to i64
  %15 = icmp slt i64 %12, %14
  br i1 %15, label %8, label %16, !llvm.loop !9

16:                                               ; preds = %8, %0
  %17 = phi i32 [ %6, %0 ], [ %13, %8 ]
  %18 = getelementptr inbounds [25 x i32], [25 x i32]* %2, i64 0, i64 0
  %19 = call i32 @lanjie(i32* nonnull %18, i32 10000, i32 0, i32 %17)
  %20 = call i32 (i8*, ...) @printf(i8* nonnull dereferenceable(1) getelementptr inbounds ([3 x i8], [3 x i8]* @.str, i64 0, i64 0), i32 %19)
  call void @llvm.lifetime.end.p0i8(i64 100, i8* nonnull %4) #4
  call void @llvm.lifetime.end.p0i8(i64 4, i8* nonnull %3) #4
  ret void
}

; Function Attrs: argmemonly mustprogress nofree nosync nounwind willreturn
declare void @llvm.lifetime.start.p0i8(i64 immarg, i8* nocapture) #1

; Function Attrs: nofree nounwind
declare noundef i32 @__isoc99_scanf(i8* nocapture noundef readonly, ...) local_unnamed_addr #2

; Function Attrs: nofree nosync nounwind readonly sspstrong uwtable
define dso_local i32 @lanjie(i32* %0, i32 %1, i32 %2, i32 %3) local_unnamed_addr #3 {
  %5 = add nsw i32 %3, -1
  %6 = icmp eq i32 %5, %2
  br i1 %6, label %28, label %7

7:                                                ; preds = %4
  %8 = sext i32 %2 to i64
  br label %9

9:                                                ; preds = %7, %24
  %10 = phi i64 [ %8, %7 ], [ %25, %24 ]
  %11 = getelementptr inbounds i32, i32* %0, i64 %10
  %12 = load i32, i32* %11, align 4, !tbaa !5
  %13 = icmp sgt i32 %12, %1
  br i1 %13, label %24, label %16

14:                                               ; preds = %28, %16
  %15 = phi i32 [ %23, %16 ], [ %34, %28 ]
  ret i32 %15

16:                                               ; preds = %9
  %17 = trunc i64 %10 to i32
  %18 = add nsw i32 %17, 1
  %19 = tail call i32 @lanjie(i32* nonnull %0, i32 %12, i32 %18, i32 %3)
  %20 = tail call i32 @lanjie(i32* nonnull %0, i32 %1, i32 %18, i32 %3)
  %21 = icmp slt i32 %19, %20
  %22 = add nsw i32 %19, 1
  %23 = select i1 %21, i32 %20, i32 %22
  br label %14

24:                                               ; preds = %9
  %25 = add nsw i64 %10, 1
  %26 = trunc i64 %25 to i32
  %27 = icmp eq i32 %5, %26
  br i1 %27, label %28, label %9

28:                                               ; preds = %24, %4
  %29 = phi i32 [ %2, %4 ], [ %5, %24 ]
  %30 = sext i32 %29 to i64
  %31 = getelementptr inbounds i32, i32* %0, i64 %30
  %32 = load i32, i32* %31, align 4, !tbaa !5
  %33 = icmp sle i32 %32, %1
  %34 = zext i1 %33 to i32
  br label %14
}

; Function Attrs: nofree nounwind
declare noundef i32 @printf(i8* nocapture noundef readonly, ...) local_unnamed_addr #2

; Function Attrs: argmemonly mustprogress nofree nosync nounwind willreturn
declare void @llvm.lifetime.end.p0i8(i64 immarg, i8* nocapture) #1


!llvm.module.flags = !{!0, !1, !2, !3}
!llvm.ident = !{!4}

!0 = !{i32 1, !"wchar_size", i32 4}
!1 = !{i32 7, !"PIC Level", i32 2}
!2 = !{i32 7, !"PIE Level", i32 2}
!3 = !{i32 7, !"uwtable", i32 1}
!4 = !{!"clang version 13.0.0"}
!5 = !{!6, !6, i64 0}
!6 = !{!"int", !7, i64 0}
!7 = !{!"omnipotent char", !8, i64 0}
!8 = !{!"Simple C/C++ TBAA"}
!9 = distinct !{!9, !10}
!10 = !{!"llvm.loop.mustprogress"}
